; Function Attrs: nounwind uwtable
define i32 @EVP_RAND_get_strength(ptr noundef readonly captures(none) %0) local_unnamed_addr #0 {
  %2 = alloca [2 x %struct.ossl_param_st], align 16
  %3 = alloca i32, align 4
  %4 = load ptr, ptr %0, align 8, !tbaa !3
  %5 = getelementptr inbounds nuw i8, ptr %4, i64 112
  %6 = load ptr, ptr %5, align 8, !tbaa !37
  %.not.i = icmp eq ptr %6, null
  br i1 %.not.i, label %evp_rand_lock.exit.thread, label %evp_rand_lock.exit

evp_rand_lock.exit:                               ; preds = %1
  %7 = getelementptr inbounds nuw i8, ptr %0, i64 8
  %8 = load ptr, ptr %7, align 8, !tbaa !17
  %9 = tail call i32 %6(ptr noundef %8) #8
  %.not = icmp eq i32 %9, 0
  br i1 %.not, label %evp_rand_unlock.exit, label %evp_rand_lock.exit.thread

evp_rand_lock.exit.thread:                        ; preds = %1, %evp_rand_lock.exit
  call void @llvm.lifetime.start.p0(i64 80, ptr nonnull %2) #8
  call void @llvm.lifetime.start.p0(i64 4, ptr nonnull %3) #8
  store i32 0, ptr %3, align 4, !tbaa !54
  call void @OSSL_PARAM_construct_uint(ptr dead_on_unwind nonnull writable sret(%struct.ossl_param_st) align 8 %2, ptr noundef nonnull @.str.3, ptr noundef nonnull %3) #8
  %10 = getelementptr inbounds nuw i8, ptr %2, i64 40
  call void @llvm.memset.p0.i64(ptr noundef nonnull align 8 dereferenceable(40) %10, i8 0, i64 40, i1 false)
  %.val.i = load ptr, ptr %0, align 8, !tbaa !3
  %11 = getelementptr i8, ptr %0, i64 8
  %.val1.i = load ptr, ptr %11, align 8, !tbaa !17
  %12 = getelementptr i8, ptr %.val.i, i64 160
  %.val.val.i = load ptr, ptr %12, align 8, !tbaa !43
  %13 = call i32 %.val.val.i(ptr noundef %.val1.i, ptr noundef nonnull %2) #8
  %.not.i4 = icmp eq i32 %13, 0
  %14 = load i32, ptr %3, align 4
  %.0.i5 = select i1 %.not.i4, i32 0, i32 %14
  call void @llvm.lifetime.end.p0(i64 4, ptr nonnull %3) #8
  call void @llvm.lifetime.end.p0(i64 80, ptr nonnull %2) #8
  %15 = load ptr, ptr %0, align 8, !tbaa !3
  %16 = getelementptr inbounds nuw i8, ptr %15, i64 120
  %17 = load ptr, ptr %16, align 8, !tbaa !38
  %.not.i6 = icmp eq ptr %17, null
  br i1 %.not.i6, label %evp_rand_unlock.exit, label %18

18:                                               ; preds = %evp_rand_lock.exit.thread
  %19 = load ptr, ptr %11, align 8, !tbaa !17
  call void %17(ptr noundef %19) #8
  br label %evp_rand_unlock.exit

evp_rand_unlock.exit:                             ; preds = %18, %evp_rand_lock.exit.thread, %evp_rand_lock.exit
  %.0 = phi i32 [ 0, %evp_rand_lock.exit ], [ %.0.i5, %evp_rand_lock.exit.thread ], [ %.0.i5, %18 ]
  ret i32 %.0
}